target datalayout = "e-m:e-p270:32:32-p271:32:32-p272:64:64-i64:64-i128:128-f80:128-n8:16:32:64-S128"
target triple = "x86_64-pc-linux-gnu"

@.str.3 = private unnamed_addr constant [12 x i8] c"bitstring.c\00", align 1
@__func__.bitfmt2int = private unnamed_addr constant [11 x i8] c"bitfmt2int\00", align 1

; Function Attrs: nounwind uwtable
define dso_local ptr @bitfmt2int(ptr noundef %0) #0 {
  %2 = alloca ptr, align 8
  %3 = alloca ptr, align 8
  %4 = alloca ptr, align 8
  %5 = alloca i32, align 4
  %6 = alloca i32, align 4
  %7 = alloca i32, align 4
  %8 = alloca i32, align 4
  %9 = alloca i32, align 4
  %10 = alloca ptr, align 8
  %11 = alloca i32, align 4
  %12 = alloca i32, align 4
  %13 = alloca i32, align 4
  %14 = alloca i32, align 4
  store ptr %0, ptr %3, align 8
  call void @llvm.lifetime.start.p0(i64 8, ptr %4) #12
  call void @llvm.lifetime.start.p0(i64 4, ptr %5) #12
  call void @llvm.lifetime.start.p0(i64 4, ptr %6) #12
  call void @llvm.lifetime.start.p0(i64 4, ptr %7) #12
  call void @llvm.lifetime.start.p0(i64 4, ptr %8) #12
  call void @llvm.lifetime.start.p0(i64 4, ptr %9) #12
  call void @llvm.lifetime.start.p0(i64 8, ptr %10) #12
  store ptr null, ptr %10, align 8
  call void @llvm.lifetime.start.p0(i64 4, ptr %11) #12
  store i32 -1, ptr %11, align 4
  call void @llvm.lifetime.start.p0(i64 4, ptr %12) #12
  store i32 -1, ptr %12, align 4
  call void @llvm.lifetime.start.p0(i64 4, ptr %13) #12
  store i32 -1, ptr %13, align 4
  %15 = load ptr, ptr %3, align 8
  %16 = icmp eq ptr %15, null
  br i1 %16, label %17, label %18

17:                                               ; preds = %1
  store ptr null, ptr %2, align 8
  store i32 1, ptr %14, align 4
  br label %198

18:                                               ; preds = %1
  %19 = load ptr, ptr %3, align 8
  %20 = call ptr @xstrchr(ptr noundef %19, i32 noundef 58)
  %21 = icmp ne ptr %20, null
  br i1 %21, label %119, label %22

22:                                               ; preds = %18
  %23 = load ptr, ptr %3, align 8
  %24 = call i64 @strlen(ptr noundef %23) #13
  %25 = add i64 %24, 1
  %26 = trunc i64 %25 to i32
  store i32 %26, ptr %7, align 4
  %27 = load i32, ptr %7, align 4
  %28 = mul nsw i32 %27, 2
  %29 = add nsw i32 %28, 1
  %30 = sext i32 %29 to i64
  %31 = mul i64 4, %30
  %32 = call ptr @slurm_xcalloc(i64 noundef 1, i64 noundef %31, i1 noundef zeroext true, i1 noundef zeroext false, ptr noundef @.str.3, i32 noundef 1547, ptr noundef @__func__.bitfmt2int)
  store ptr %32, ptr %4, align 8
  store i32 0, ptr %8, align 4
  store i32 0, ptr %6, align 4
  store i32 -1, ptr %9, align 4
  store i32 0, ptr %5, align 4
  br label %33

33:                                               ; preds = %115, %22
  %34 = load i32, ptr %5, align 4
  %35 = load i32, ptr %7, align 4
  %36 = icmp slt i32 %34, %35
  br i1 %36, label %37, label %118

37:                                               ; preds = %33
  %38 = load ptr, ptr %3, align 8
  %39 = load i32, ptr %5, align 4
  %40 = sext i32 %39 to i64
  %41 = getelementptr inbounds i8, ptr %38, i64 %40
  %42 = load i8, ptr %41, align 1
  %43 = sext i8 %42 to i32
  %44 = icmp sge i32 %43, 48
  br i1 %44, label %45, label %64

45:                                               ; preds = %37
  %46 = load ptr, ptr %3, align 8
  %47 = load i32, ptr %5, align 4
  %48 = sext i32 %47 to i64
  %49 = getelementptr inbounds i8, ptr %46, i64 %48
  %50 = load i8, ptr %49, align 1
  %51 = sext i8 %50 to i32
  %52 = icmp sle i32 %51, 57
  br i1 %52, label %53, label %64

53:                                               ; preds = %45
  %54 = load i32, ptr %8, align 4
  %55 = mul nsw i32 %54, 10
  %56 = load ptr, ptr %3, align 8
  %57 = load i32, ptr %5, align 4
  %58 = sext i32 %57 to i64
  %59 = getelementptr inbounds i8, ptr %56, i64 %58
  %60 = load i8, ptr %59, align 1
  %61 = sext i8 %60 to i32
  %62 = sub nsw i32 %61, 48
  %63 = add nsw i32 %55, %62
  store i32 %63, ptr %8, align 4
  br label %114

64:                                               ; preds = %45, %37
  %65 = load ptr, ptr %3, align 8
  %66 = load i32, ptr %5, align 4
  %67 = sext i32 %66 to i64
  %68 = getelementptr inbounds i8, ptr %65, i64 %67
  %69 = load i8, ptr %68, align 1
  %70 = sext i8 %69 to i32
  %71 = icmp eq i32 %70, 45
  br i1 %71, label %72, label %74

72:                                               ; preds = %64
  %73 = load i32, ptr %8, align 4
  store i32 %73, ptr %9, align 4
  store i32 0, ptr %8, align 4
  br label %113

74:                                               ; preds = %64
  %75 = load ptr, ptr %3, align 8
  %76 = load i32, ptr %5, align 4
  %77 = sext i32 %76 to i64
  %78 = getelementptr inbounds i8, ptr %75, i64 %77
  %79 = load i8, ptr %78, align 1
  %80 = sext i8 %79 to i32
  %81 = icmp eq i32 %80, 44
  br i1 %81, label %90, label %82

82:                                               ; preds = %74
  %83 = load ptr, ptr %3, align 8
  %84 = load i32, ptr %5, align 4
  %85 = sext i32 %84 to i64
  %86 = getelementptr inbounds i8, ptr %83, i64 %85
  %87 = load i8, ptr %86, align 1
  %88 = sext i8 %87 to i32
  %89 = icmp eq i32 %88, 0
  br i1 %89, label %90, label %112

90:                                               ; preds = %82, %74
  %91 = load i32, ptr %5, align 4
  %92 = icmp eq i32 %91, 0
  br i1 %92, label %93, label %94

93:                                               ; preds = %90
  br label %118

94:                                               ; preds = %90
  %95 = load i32, ptr %9, align 4
  %96 = icmp eq i32 %95, -1
  br i1 %96, label %97, label %99

97:                                               ; preds = %94
  %98 = load i32, ptr %8, align 4
  store i32 %98, ptr %9, align 4
  br label %99

99:                                               ; preds = %97, %94
  %100 = load i32, ptr %9, align 4
  %101 = load ptr, ptr %4, align 8
  %102 = load i32, ptr %6, align 4
  %103 = add nsw i32 %102, 1
  store i32 %103, ptr %6, align 4
  %104 = sext i32 %102 to i64
  %105 = getelementptr inbounds i32, ptr %101, i64 %104
  store i32 %100, ptr %105, align 4
  %106 = load i32, ptr %8, align 4
  %107 = load ptr, ptr %4, align 8
  %108 = load i32, ptr %6, align 4
  %109 = add nsw i32 %108, 1
  store i32 %109, ptr %6, align 4
  %110 = sext i32 %108 to i64
  %111 = getelementptr inbounds i32, ptr %107, i64 %110
  store i32 %106, ptr %111, align 4
  store i32 -1, ptr %9, align 4
  store i32 0, ptr %8, align 4
  br label %112

112:                                              ; preds = %99, %82
  br label %113

113:                                              ; preds = %112, %72
  br label %114

114:                                              ; preds = %113, %53
  br label %115

115:                                              ; preds = %114
  %116 = load i32, ptr %5, align 4
  %117 = add nsw i32 %116, 1
  store i32 %117, ptr %5, align 4
  br label %33, !llvm.loop !28

118:                                              ; preds = %93, %33
  br label %192

119:                                              ; preds = %18
  %120 = load ptr, ptr %3, align 8
  %121 = call i64 @strtol(ptr noundef %120, ptr noundef %10, i32 noundef 10) #12
  %122 = trunc i64 %121 to i32
  store i32 %122, ptr %11, align 4
  %123 = load ptr, ptr %10, align 8
  %124 = load i8, ptr %123, align 1
  %125 = sext i8 %124 to i32
  %126 = icmp ne i32 %125, 45
  br i1 %126, label %127, label %128

127:                                              ; preds = %119
  store ptr null, ptr %2, align 8
  store i32 1, ptr %14, align 4
  br label %198

128:                                              ; preds = %119
  %129 = load ptr, ptr %10, align 8
  %130 = getelementptr inbounds i8, ptr %129, i64 1
  %131 = call i64 @strtol(ptr noundef %130, ptr noundef %10, i32 noundef 10) #12
  %132 = trunc i64 %131 to i32
  store i32 %132, ptr %12, align 4
  %133 = load ptr, ptr %10, align 8
  %134 = load i8, ptr %133, align 1
  %135 = sext i8 %134 to i32
  %136 = icmp ne i32 %135, 58
  br i1 %136, label %137, label %138

137:                                              ; preds = %128
  store ptr null, ptr %2, align 8
  store i32 1, ptr %14, align 4
  br label %198

138:                                              ; preds = %128
  %139 = load ptr, ptr %10, align 8
  %140 = getelementptr inbounds i8, ptr %139, i64 1
  %141 = call i64 @strtol(ptr noundef %140, ptr noundef %10, i32 noundef 10) #12
  %142 = trunc i64 %141 to i32
  store i32 %142, ptr %13, align 4
  %143 = load ptr, ptr %10, align 8
  %144 = load i8, ptr %143, align 1
  %145 = sext i8 %144 to i32
  %146 = icmp ne i32 %145, 0
  br i1 %146, label %147, label %148

147:                                              ; preds = %138
  store ptr null, ptr %2, align 8
  store i32 1, ptr %14, align 4
  br label %198

148:                                              ; preds = %138
  %149 = load i32, ptr %12, align 4
  %150 = load i32, ptr %11, align 4
  %151 = icmp slt i32 %149, %150
  br i1 %151, label %155, label %152

152:                                              ; preds = %148
  %153 = load i32, ptr %13, align 4
  %154 = icmp sle i32 %153, 0
  br i1 %154, label %155, label %156

155:                                              ; preds = %152, %148
  store ptr null, ptr %2, align 8
  store i32 1, ptr %14, align 4
  br label %198

156:                                              ; preds = %152
  %157 = load i32, ptr %12, align 4
  %158 = load i32, ptr %11, align 4
  %159 = sub nsw i32 %157, %158
  %160 = load i32, ptr %13, align 4
  %161 = sdiv i32 %159, %160
  %162 = add nsw i32 %161, 1
  store i32 %162, ptr %7, align 4
  %163 = load i32, ptr %7, align 4
  %164 = mul nsw i32 %163, 2
  %165 = add nsw i32 %164, 1
  %166 = sext i32 %165 to i64
  %167 = mul i64 4, %166
  %168 = call ptr @slurm_xcalloc(i64 noundef 1, i64 noundef %167, i1 noundef zeroext true, i1 noundef zeroext false, ptr noundef @.str.3, i32 noundef 1584, ptr noundef @__func__.bitfmt2int)
  store ptr %168, ptr %4, align 8
  store i32 0, ptr %6, align 4
  %169 = load i32, ptr %11, align 4
  store i32 %169, ptr %5, align 4
  br label %170

170:                                              ; preds = %187, %156
  %171 = load i32, ptr %5, align 4
  %172 = load i32, ptr %12, align 4
  %173 = icmp slt i32 %171, %172
  br i1 %173, label %174, label %191

174:                                              ; preds = %170
  %175 = load i32, ptr %5, align 4
  %176 = load ptr, ptr %4, align 8
  %177 = load i32, ptr %6, align 4
  %178 = add nsw i32 %177, 1
  store i32 %178, ptr %6, align 4
  %179 = sext i32 %177 to i64
  %180 = getelementptr inbounds i32, ptr %176, i64 %179
  store i32 %175, ptr %180, align 4
  %181 = load i32, ptr %5, align 4
  %182 = load ptr, ptr %4, align 8
  %183 = load i32, ptr %6, align 4
  %184 = add nsw i32 %183, 1
  store i32 %184, ptr %6, align 4
  %185 = sext i32 %183 to i64
  %186 = getelementptr inbounds i32, ptr %182, i64 %185
  store i32 %181, ptr %186, align 4
  br label %187

187:                                              ; preds = %174
  %188 = load i32, ptr %13, align 4
  %189 = load i32, ptr %5, align 4
  %190 = add nsw i32 %189, %188
  store i32 %190, ptr %5, align 4
  br label %170, !llvm.loop !29

191:                                              ; preds = %170
  br label %192

192:                                              ; preds = %191, %118
  %193 = load ptr, ptr %4, align 8
  %194 = load i32, ptr %6, align 4
  %195 = sext i32 %194 to i64
  %196 = getelementptr inbounds i32, ptr %193, i64 %195
  store i32 -1, ptr %196, align 4
  %197 = load ptr, ptr %4, align 8
  store ptr %197, ptr %2, align 8
  store i32 1, ptr %14, align 4
  br label %198

198:                                              ; preds = %192, %155, %147, %137, %127, %17
  call void @llvm.lifetime.end.p0(i64 4, ptr %13) #12
  call void @llvm.lifetime.end.p0(i64 4, ptr %12) #12
  call void @llvm.lifetime.end.p0(i64 4, ptr %11) #12
  call void @llvm.lifetime.end.p0(i64 8, ptr %10) #12
  call void @llvm.lifetime.end.p0(i64 4, ptr %9) #12
  call void @llvm.lifetime.end.p0(i64 4, ptr %8) #12
  call void @llvm.lifetime.end.p0(i64 4, ptr %7) #12
  call void @llvm.lifetime.end.p0(i64 4, ptr %6) #12
  call void @llvm.lifetime.end.p0(i64 4, ptr %5) #12
  call void @llvm.lifetime.end.p0(i64 8, ptr %4) #12
  %199 = load ptr, ptr %2, align 8
  ret ptr %199
}