; Function Attrs: nounwind uwtable
define dso_local ptr @bitfmt2int(ptr noundef %0) #0 {
  %2 = alloca ptr, align 8
  call void @llvm.lifetime.start.p0(i64 8, ptr nonnull %2) #17
  store ptr null, ptr %2, align 8
  %3 = icmp eq ptr %0, null
  br i1 %3, label %70, label %4

4:                                                ; preds = %1
  %5 = tail call ptr @xstrchr(ptr noundef nonnull %0, i32 noundef 58) #17
  %.not = icmp eq ptr %5, null
  br i1 %.not, label %6, label %33

6:                                                ; preds = %4
  %7 = tail call i64 @strlen(ptr noundef nonnull dereferenceable(1) %0) #20
  %8 = trunc i64 %7 to i32
  %9 = add i32 %8, 1
  %10 = shl nsw i32 %9, 1
  %11 = or disjoint i32 %10, 1
  %12 = sext i32 %11 to i64
  %13 = shl nsw i64 %12, 2
  %14 = tail call ptr @slurm_xcalloc(i64 noundef 1, i64 noundef %13, i1 noundef zeroext true, i1 noundef zeroext false, ptr noundef nonnull @.str.3, i32 noundef 1547, ptr noundef nonnull @__func__.bitfmt2int) #17
  %15 = icmp ult i32 %8, 2147483647
  br i1 %15, label %.lr.ph79.preheader, label %.loopexit

.lr.ph79.preheader:                               ; preds = %6
  %wide.trip.count = zext nneg i32 %9 to i64
  br label %.lr.ph79

.lr.ph79:                                         ; preds = %.lr.ph79.preheader, %32
  %indvars.iv85 = phi i64 [ 0, %.lr.ph79.preheader ], [ %indvars.iv.next86, %32 ]
  %.078 = phi i32 [ -1, %.lr.ph79.preheader ], [ %.2, %32 ]
  %.05377 = phi i32 [ 0, %.lr.ph79.preheader ], [ %.154, %32 ]
  %.05576 = phi i32 [ 0, %.lr.ph79.preheader ], [ %.156, %32 ]
  %16 = getelementptr inbounds nuw i8, ptr %0, i64 %indvars.iv85
  %17 = load i8, ptr %16, align 1
  %18 = add i8 %17, -48
  %or.cond71 = icmp ult i8 %18, 10
  br i1 %or.cond71, label %19, label %23

19:                                               ; preds = %.lr.ph79
  %20 = mul nsw i32 %.05377, 10
  %21 = zext nneg i8 %18 to i32
  %22 = add nsw i32 %20, %21
  br label %32

23:                                               ; preds = %.lr.ph79
  switch i8 %17, label %.fold.split [
    i8 45, label %32
    i8 44, label %24
    i8 0, label %24
  ]

24:                                               ; preds = %23, %23
  %25 = icmp eq i64 %indvars.iv85, 0
  br i1 %25, label %.loopexit, label %26

26:                                               ; preds = %24
  %27 = icmp eq i32 %.078, -1
  %spec.select = select i1 %27, i32 %.05377, i32 %.078
  %28 = sext i32 %.05576 to i64
  %29 = getelementptr inbounds i32, ptr %14, i64 %28
  store i32 %spec.select, ptr %29, align 4
  %30 = add nsw i32 %.05576, 2
  %31 = getelementptr i8, ptr %29, i64 4
  store i32 %.05377, ptr %31, align 4
  br label %32

.fold.split:                                      ; preds = %23
  br label %32

32:                                               ; preds = %23, %.fold.split, %19, %26
  %.156 = phi i32 [ %.05576, %19 ], [ %30, %26 ], [ %.05576, %23 ], [ %.05576, %.fold.split ]
  %.154 = phi i32 [ %22, %19 ], [ 0, %26 ], [ 0, %23 ], [ %.05377, %.fold.split ]
  %.2 = phi i32 [ %.078, %19 ], [ -1, %26 ], [ %.05377, %23 ], [ %.078, %.fold.split ]
  %indvars.iv.next86 = add nuw nsw i64 %indvars.iv85, 1
  %exitcond.not = icmp eq i64 %indvars.iv.next86, %wide.trip.count
  br i1 %exitcond.not, label %.loopexit, label %.lr.ph79, !llvm.loop !29

33:                                               ; preds = %4
  %34 = call i64 @strtol(ptr noundef nonnull %0, ptr noundef nonnull %2, i32 noundef 10) #17
  %35 = trunc i64 %34 to i32
  %36 = load ptr, ptr %2, align 8
  %37 = load i8, ptr %36, align 1
  %.not68 = icmp eq i8 %37, 45
  br i1 %.not68, label %38, label %70

38:                                               ; preds = %33
  %39 = getelementptr inbounds nuw i8, ptr %36, i64 1
  %40 = call i64 @strtol(ptr noundef nonnull %39, ptr noundef nonnull %2, i32 noundef 10) #17
  %41 = trunc i64 %40 to i32
  %42 = load ptr, ptr %2, align 8
  %43 = load i8, ptr %42, align 1
  %.not69 = icmp eq i8 %43, 58
  br i1 %.not69, label %44, label %70

44:                                               ; preds = %38
  %45 = getelementptr inbounds nuw i8, ptr %42, i64 1
  %46 = call i64 @strtol(ptr noundef nonnull %45, ptr noundef nonnull %2, i32 noundef 10) #17
  %47 = trunc i64 %46 to i32
  %48 = load ptr, ptr %2, align 8
  %49 = load i8, ptr %48, align 1
  %.not70 = icmp eq i8 %49, 0
  br i1 %.not70, label %50, label %70

50:                                               ; preds = %44
  %51 = icmp slt i32 %41, %35
  %52 = icmp slt i32 %47, 1
  %or.cond = select i1 %51, i1 true, i1 %52
  br i1 %or.cond, label %70, label %53

53:                                               ; preds = %50
  %54 = sub nsw i32 %41, %35
  %55 = sdiv i32 %54, %47
  %56 = shl i32 %55, 1
  %57 = add i32 %56, 3
  %58 = sext i32 %57 to i64
  %59 = shl nsw i64 %58, 2
  %60 = tail call ptr @slurm_xcalloc(i64 noundef 1, i64 noundef %59, i1 noundef zeroext true, i1 noundef zeroext false, ptr noundef nonnull @.str.3, i32 noundef 1584, ptr noundef nonnull @__func__.bitfmt2int) #17
  %61 = icmp slt i32 %35, %41
  br i1 %61, label %.lr.ph, label %.loopexit

.lr.ph:                                           ; preds = %53, %.lr.ph
  %indvars.iv = phi i64 [ %indvars.iv.next, %.lr.ph ], [ 0, %53 ]
  %.15973 = phi i32 [ %65, %.lr.ph ], [ %35, %53 ]
  %62 = or disjoint i64 %indvars.iv, 1
  %63 = getelementptr inbounds nuw i32, ptr %60, i64 %indvars.iv
  store i32 %.15973, ptr %63, align 4
  %indvars.iv.next = add nuw nsw i64 %indvars.iv, 2
  %64 = getelementptr inbounds nuw i32, ptr %60, i64 %62
  store i32 %.15973, ptr %64, align 4
  %65 = add nsw i32 %.15973, %47
  %66 = icmp slt i32 %65, %41
  br i1 %66, label %.lr.ph, label %.loopexit.loopexit83, !llvm.loop !30

.loopexit.loopexit83:                             ; preds = %.lr.ph
  %67 = trunc nuw i64 %indvars.iv.next to i32
  br label %.loopexit

.loopexit:                                        ; preds = %24, %32, %.loopexit.loopexit83, %53, %6
  %.060 = phi ptr [ %14, %6 ], [ %60, %53 ], [ %60, %.loopexit.loopexit83 ], [ %14, %32 ], [ %14, %24 ]
  %.257 = phi i32 [ 0, %6 ], [ 0, %53 ], [ %67, %.loopexit.loopexit83 ], [ %.05576, %24 ], [ %.156, %32 ]
  %68 = sext i32 %.257 to i64
  %69 = getelementptr inbounds i32, ptr %.060, i64 %68
  store i32 -1, ptr %69, align 4
  br label %70

70:                                               ; preds = %50, %44, %38, %33, %1, %.loopexit
  %.061 = phi ptr [ %.060, %.loopexit ], [ null, %1 ], [ null, %33 ], [ null, %38 ], [ null, %44 ], [ null, %50 ]
  call void @llvm.lifetime.end.p0(i64 8, ptr nonnull %2) #17
  ret ptr %.061
}